; Function Attrs: mustprogress uwtable
define noundef ptr @_Z10choose_terN3gmx8ArrayRefIP21MoleculePatchDatabaseEEPKc(ptr %0, ptr %1, ptr nocapture noundef readonly %2) local_unnamed_addr #0 {
  %4 = alloca i32, align 4
  %puts = tail call i32 @puts(ptr nonnull dereferenceable(1) %2)
  %.not1516 = icmp eq ptr %0, %1
  br i1 %.not1516, label %.critedge.preheader, label %.lr.ph

.critedge.preheader:                              ; preds = %.lr.ph, %3
  %5 = ptrtoint ptr %1 to i64
  %6 = ptrtoint ptr %0 to i64
  %7 = sub i64 %5, %6
  %8 = ashr exact i64 %7, 3
  br label %.critedge

.lr.ph:                                           ; preds = %3, %.lr.ph
  %.018 = phi i32 [ %17, %.lr.ph ], [ 0, %3 ]
  %.sroa.0.017 = phi ptr [ %18, %.lr.ph ], [ %0, %3 ]
  %9 = load ptr, ptr %.sroa.0.017, align 8
  %10 = tail call noundef ptr @_ZNKSt7__cxx1112basic_stringIcSt11char_traitsIcESaIcEE5c_strEv(ptr noundef nonnull align 8 dereferenceable(32) %9) #17
  %11 = tail call noundef i32 @_Z11gmx_wcmatchPKcS0_(ptr noundef nonnull @.str.37, ptr noundef %10)
  %12 = icmp eq i32 %11, 0
  %13 = load ptr, ptr %.sroa.0.017, align 8
  %14 = tail call noundef ptr @_ZNKSt7__cxx1112basic_stringIcSt11char_traitsIcESaIcEE5c_strEv(ptr noundef nonnull align 8 dereferenceable(32) %13) #17
  %15 = select i1 %12, ptr @.str.39, ptr @.str.9
  %16 = tail call i32 (ptr, ...) @printf(ptr noundef nonnull dereferenceable(1) @.str.38, i32 noundef %.018, ptr noundef %14, ptr noundef nonnull %15)
  %17 = add nuw nsw i32 %.018, 1
  %18 = getelementptr inbounds i8, ptr %.sroa.0.017, i64 8
  %.not15 = icmp eq ptr %18, %1
  br i1 %.not15, label %.critedge.preheader, label %.lr.ph

.critedge:                                        ; preds = %.critedge, %.critedge.preheader
  %19 = load ptr, ptr @stdin, align 8
  %20 = call i32 (ptr, ptr, ...) @__isoc99_fscanf(ptr noundef %19, ptr noundef nonnull @.str.24, ptr noundef nonnull %4)
  %21 = icmp eq i32 %20, 1
  %22 = load i32, ptr %4, align 4
  %23 = icmp sgt i32 %22, -1
  %or.cond.not22 = select i1 %21, i1 %23, i1 false
  %24 = zext nneg i32 %22 to i64
  %.not = icmp sgt i64 %8, %24
  %or.cond19 = select i1 %or.cond.not22, i1 %.not, i1 false
  br i1 %or.cond19, label %25, label %.critedge, !llvm.loop !67

25:                                               ; preds = %.critedge
  %26 = getelementptr inbounds ptr, ptr %0, i64 %24
  %27 = load ptr, ptr %26, align 8
  ret ptr %27
}